target datalayout = "e-m:e-p270:32:32-p271:32:32-p272:64:64-i64:64-i128:128-f80:128-n8:16:32:64-S128"
target triple = "x86_64-pc-linux-gnu"

%struct.ZSTDv04_Dctx_s = type { [1025 x i32], [513 x i32], [1025 x i32], ptr, ptr, ptr, ptr, i64, i64, %struct.ZSTD_parameters, i32, i32, ptr, i64, [131080 x i8], [5 x i8] }
%struct.ZSTD_parameters = type { i64, i32, i32, i32, i32, i32, i32 }

; Function Attrs: nounwind uwtable
define internal i64 @ZSTD_resetDCtx(ptr noundef %0) #0 {
  %2 = alloca ptr, align 8
  store ptr %0, ptr %2, align 8, !tbaa !23
  %3 = load ptr, ptr %2, align 8, !tbaa !23
  %4 = getelementptr inbounds nuw %struct.ZSTDv04_Dctx_s, ptr %3, i32 0, i32 7
  store i64 5, ptr %4, align 8, !tbaa !31
  %5 = load ptr, ptr %2, align 8, !tbaa !23
  %6 = getelementptr inbounds nuw %struct.ZSTDv04_Dctx_s, ptr %5, i32 0, i32 11
  store i32 0, ptr %6, align 4, !tbaa !32
  %7 = load ptr, ptr %2, align 8, !tbaa !23
  %8 = getelementptr inbounds nuw %struct.ZSTDv04_Dctx_s, ptr %7, i32 0, i32 3
  store ptr null, ptr %8, align 8, !tbaa !25
  %9 = load ptr, ptr %2, align 8, !tbaa !23
  %10 = getelementptr inbounds nuw %struct.ZSTDv04_Dctx_s, ptr %9, i32 0, i32 4
  store ptr null, ptr %10, align 8, !tbaa !29
  %11 = load ptr, ptr %2, align 8, !tbaa !23
  %12 = getelementptr inbounds nuw %struct.ZSTDv04_Dctx_s, ptr %11, i32 0, i32 5
  store ptr null, ptr %12, align 8, !tbaa !30
  %13 = load ptr, ptr %2, align 8, !tbaa !23
  %14 = getelementptr inbounds nuw %struct.ZSTDv04_Dctx_s, ptr %13, i32 0, i32 6
  store ptr null, ptr %14, align 8, !tbaa !28
  ret i64 0
}

; Function Attrs: nounwind uwtable
define internal i64 @ZSTD_freeDCtx(ptr noundef %0) #0 {
  %2 = alloca ptr, align 8
  store ptr %0, ptr %2, align 8, !tbaa !23
  %3 = load ptr, ptr %2, align 8, !tbaa !23
  call void @free(ptr noundef %3) #10
  ret i64 0
}

; Function Attrs: nounwind uwtable
define internal ptr @ZSTD_createDCtx() #0 {
  %1 = alloca ptr, align 8
  %2 = alloca ptr, align 8
  %3 = alloca i32, align 4
  call void @llvm.lifetime.start.p0(i64 8, ptr %2) #10
  %4 = call noalias ptr @malloc(i64 noundef 141448) #11
  store ptr %4, ptr %2, align 8, !tbaa !23
  %5 = load ptr, ptr %2, align 8, !tbaa !23
  %6 = icmp eq ptr %5, null
  br i1 %6, label %7, label %8

7:                                                ; preds = %0
  store ptr null, ptr %1, align 8
  store i32 1, ptr %3, align 4
  br label %12

8:                                                ; preds = %0
  %9 = load ptr, ptr %2, align 8, !tbaa !23
  %10 = call i64 @ZSTD_resetDCtx(ptr noundef %9)
  %11 = load ptr, ptr %2, align 8, !tbaa !23
  store ptr %11, ptr %1, align 8
  store i32 1, ptr %3, align 4
  br label %12

12:                                               ; preds = %8, %7
  call void @llvm.lifetime.end.p0(i64 8, ptr %2) #10
  %13 = load ptr, ptr %1, align 8
  ret ptr %13
}

; Function Attrs: nounwind uwtable
define i64 @ZSTDv04_decompress(ptr noundef %0, i64 noundef %1, ptr noundef %2, i64 noundef %3) #0 {
  %5 = alloca i64, align 8
  %6 = alloca ptr, align 8
  %7 = alloca i64, align 8
  %8 = alloca ptr, align 8
  %9 = alloca i64, align 8
  %10 = alloca i64, align 8
  %11 = alloca ptr, align 8
  %12 = alloca i32, align 4
  store ptr %0, ptr %6, align 8, !tbaa !3
  store i64 %1, ptr %7, align 8, !tbaa !7
  store ptr %2, ptr %8, align 8, !tbaa !3
  store i64 %3, ptr %9, align 8, !tbaa !7
  call void @llvm.lifetime.start.p0(i64 8, ptr %10) #10
  call void @llvm.lifetime.start.p0(i64 8, ptr %11) #10
  %13 = call ptr @ZSTD_createDCtx()
  store ptr %13, ptr %11, align 8, !tbaa !23
  %14 = load ptr, ptr %11, align 8, !tbaa !23
  %15 = icmp eq ptr %14, null
  br i1 %15, label %16, label %17

16:                                               ; preds = %4
  store i64 -64, ptr %5, align 8
  store i32 1, ptr %12, align 4
  br label %27

17:                                               ; preds = %4
  %18 = load ptr, ptr %11, align 8, !tbaa !23
  %19 = load ptr, ptr %6, align 8, !tbaa !3
  %20 = load i64, ptr %7, align 8, !tbaa !7
  %21 = load ptr, ptr %8, align 8, !tbaa !3
  %22 = load i64, ptr %9, align 8, !tbaa !7
  %23 = call i64 @ZSTDv04_decompressDCtx(ptr noundef %18, ptr noundef %19, i64 noundef %20, ptr noundef %21, i64 noundef %22)
  store i64 %23, ptr %10, align 8, !tbaa !7
  %24 = load ptr, ptr %11, align 8, !tbaa !23
  %25 = call i64 @ZSTD_freeDCtx(ptr noundef %24)
  %26 = load i64, ptr %10, align 8, !tbaa !7
  store i64 %26, ptr %5, align 8
  store i32 1, ptr %12, align 4
  br label %27

27:                                               ; preds = %17, %16
  call void @llvm.lifetime.end.p0(i64 8, ptr %11) #10
  call void @llvm.lifetime.end.p0(i64 8, ptr %10) #10
  %28 = load i64, ptr %5, align 8
  ret i64 %28
}