; Function Attrs: nounwind uwtable
define i64 @ZSTDv04_decompress(ptr noundef %0, i64 noundef %1, ptr noundef %2, i64 noundef %3) local_unnamed_addr #3 {
  %5 = tail call noalias dereferenceable_or_null(141448) ptr @malloc(i64 noundef 141448) #23
  %6 = icmp eq ptr %5, null
  br i1 %6, label %ZSTD_createDCtx.exit.thread, label %7

7:                                                ; preds = %4
  %8 = getelementptr inbounds nuw i8, ptr %5, i64 10288
  store i64 5, ptr %8, align 8, !tbaa !10
  %9 = getelementptr inbounds nuw i8, ptr %5, i64 10340
  store i32 0, ptr %9, align 4, !tbaa !16
  %10 = getelementptr inbounds nuw i8, ptr %5, i64 10256
  tail call void @llvm.memset.p0.i64(ptr noundef nonnull align 8 dereferenceable(32) %10, i8 0, i64 32, i1 false)
  %11 = tail call i64 @ZSTDv04_decompressDCtx(ptr noundef nonnull %5, ptr noundef %0, i64 noundef %1, ptr noundef %2, i64 noundef %3)
  tail call void @free(ptr noundef nonnull %5) #22
  br label %ZSTD_createDCtx.exit.thread

ZSTD_createDCtx.exit.thread:                      ; preds = %4, %7
  %.0 = phi i64 [ %11, %7 ], [ -64, %4 ]
  ret i64 %.0
}